target datalayout = "e-m:e-p270:32:32-p271:32:32-p272:64:64-i64:64-i128:128-f80:128-n8:16:32:64-S128"
target triple = "x86_64-pc-linux-gnu"

%struct.lua_State = type { ptr, i8, i8, i8, i8, i16, %union.StkIdRel, ptr, ptr, %union.StkIdRel, %union.StkIdRel, ptr, %union.StkIdRel, ptr, ptr, ptr, %struct.CallInfo, ptr, i64, i32, i32, i32, i32, i32, %struct.anon.2 }
%union.StkIdRel = type { ptr }
%struct.CallInfo = type { %union.StkIdRel, %union.StkIdRel, ptr, ptr, %union.anon, %union.anon.1, i32 }
%union.anon = type { %struct.anon.0 }
%struct.anon.0 = type { ptr, i64, i64 }
%union.anon.1 = type { i32 }
%struct.anon.2 = type { i32, i32 }
%struct.global_State = type { ptr, ptr, i64, i64, i64, i64, %struct.stringtable, %struct.TValue, %struct.TValue, i32, [6 x i8], i8, i8, i8, i8, i8, i8, ptr, ptr, ptr, ptr, ptr, ptr, ptr, ptr, ptr, ptr, ptr, ptr, ptr, ptr, ptr, ptr, ptr, ptr, ptr, ptr, ptr, [25 x ptr], [9 x ptr], [53 x [2 x ptr]], ptr, ptr }
%struct.stringtable = type { ptr, i32, i32 }
%struct.TValue = type { %union.Value, i8 }
%union.Value = type { ptr }
%struct.GCObject = type { ptr, i8, i8 }

; Function Attrs: nounwind uwtable
define internal ptr @findlast(ptr noundef %0) #0 {
  %2 = alloca ptr, align 8
  store ptr %0, ptr %2, align 8, !tbaa !52
  br label %3

3:                                                ; preds = %7, %1
  %4 = load ptr, ptr %2, align 8, !tbaa !52
  %5 = load ptr, ptr %4, align 8, !tbaa !9
  %6 = icmp ne ptr %5, null
  br i1 %6, label %7, label %11

7:                                                ; preds = %3
  %8 = load ptr, ptr %2, align 8, !tbaa !52
  %9 = load ptr, ptr %8, align 8, !tbaa !9
  %10 = getelementptr inbounds nuw %struct.GCObject, ptr %9, i32 0, i32 0
  store ptr %10, ptr %2, align 8, !tbaa !52
  br label %3

11:                                               ; preds = %3
  %12 = load ptr, ptr %2, align 8, !tbaa !52
  ret ptr %12
}

; Function Attrs: nounwind uwtable
define internal void @deletelist(ptr noundef %0, ptr noundef %1, ptr noundef %2) #0 {
  %4 = alloca ptr, align 8
  %5 = alloca ptr, align 8
  %6 = alloca ptr, align 8
  %7 = alloca ptr, align 8
  store ptr %0, ptr %4, align 8, !tbaa !4
  store ptr %1, ptr %5, align 8, !tbaa !9
  store ptr %2, ptr %6, align 8, !tbaa !9
  br label %8

8:                                                ; preds = %12, %3
  %9 = load ptr, ptr %5, align 8, !tbaa !9
  %10 = load ptr, ptr %6, align 8, !tbaa !9
  %11 = icmp ne ptr %9, %10
  br i1 %11, label %12, label %19

12:                                               ; preds = %8
  call void @llvm.lifetime.start.p0(i64 8, ptr %7) #6
  %13 = load ptr, ptr %5, align 8, !tbaa !9
  %14 = getelementptr inbounds nuw %struct.GCObject, ptr %13, i32 0, i32 0
  %15 = load ptr, ptr %14, align 8, !tbaa !53
  store ptr %15, ptr %7, align 8, !tbaa !9
  %16 = load ptr, ptr %4, align 8, !tbaa !4
  %17 = load ptr, ptr %5, align 8, !tbaa !9
  call void @freeobj(ptr noundef %16, ptr noundef %17)
  %18 = load ptr, ptr %7, align 8, !tbaa !9
  store ptr %18, ptr %5, align 8, !tbaa !9
  call void @llvm.lifetime.end.p0(i64 8, ptr %7) #6
  br label %8

19:                                               ; preds = %8
  ret void
}

; Function Attrs: nounwind uwtable
define internal void @callallpendingfinalizers(ptr noundef %0) #0 {
  %2 = alloca ptr, align 8
  %3 = alloca ptr, align 8
  store ptr %0, ptr %2, align 8, !tbaa !4
  call void @llvm.lifetime.start.p0(i64 8, ptr %3) #6
  %4 = load ptr, ptr %2, align 8, !tbaa !4
  %5 = getelementptr inbounds nuw %struct.lua_State, ptr %4, i32 0, i32 7
  %6 = load ptr, ptr %5, align 8, !tbaa !11
  store ptr %6, ptr %3, align 8, !tbaa !22
  br label %7

7:                                                ; preds = %12, %1
  %8 = load ptr, ptr %3, align 8, !tbaa !22
  %9 = getelementptr inbounds nuw %struct.global_State, ptr %8, i32 0, i32 25
  %10 = load ptr, ptr %9, align 8, !tbaa !74
  %11 = icmp ne ptr %10, null
  br i1 %11, label %12, label %14

12:                                               ; preds = %7
  %13 = load ptr, ptr %2, align 8, !tbaa !4
  call void @GCTM(ptr noundef %13)
  br label %7

14:                                               ; preds = %7
  call void @llvm.lifetime.end.p0(i64 8, ptr %3) #6
  ret void
}

; Function Attrs: nounwind uwtable
define internal void @separatetobefnz(ptr noundef %0, i32 noundef %1) #0 {
  %3 = alloca ptr, align 8
  %4 = alloca i32, align 4
  %5 = alloca ptr, align 8
  %6 = alloca ptr, align 8
  %7 = alloca ptr, align 8
  store ptr %0, ptr %3, align 8, !tbaa !22
  store i32 %1, ptr %4, align 4, !tbaa !65
  call void @llvm.lifetime.start.p0(i64 8, ptr %5) #6
  call void @llvm.lifetime.start.p0(i64 8, ptr %6) #6
  %8 = load ptr, ptr %3, align 8, !tbaa !22
  %9 = getelementptr inbounds nuw %struct.global_State, ptr %8, i32 0, i32 19
  store ptr %9, ptr %6, align 8, !tbaa !52
  call void @llvm.lifetime.start.p0(i64 8, ptr %7) #6
  %10 = load ptr, ptr %3, align 8, !tbaa !22
  %11 = getelementptr inbounds nuw %struct.global_State, ptr %10, i32 0, i32 25
  %12 = call ptr @findlast(ptr noundef %11)
  store ptr %12, ptr %7, align 8, !tbaa !52
  br label %13

13:                                               ; preds = %58, %2
  %14 = load ptr, ptr %6, align 8, !tbaa !52
  %15 = load ptr, ptr %14, align 8, !tbaa !9
  store ptr %15, ptr %5, align 8, !tbaa !9
  %16 = load ptr, ptr %3, align 8, !tbaa !22
  %17 = getelementptr inbounds nuw %struct.global_State, ptr %16, i32 0, i32 32
  %18 = load ptr, ptr %17, align 8, !tbaa !71
  %19 = icmp ne ptr %15, %18
  br i1 %19, label %20, label %59

20:                                               ; preds = %13
  %21 = load ptr, ptr %5, align 8, !tbaa !9
  %22 = getelementptr inbounds nuw %struct.GCObject, ptr %21, i32 0, i32 2
  %23 = load i8, ptr %22, align 1, !tbaa !30
  %24 = zext i8 %23 to i32
  %25 = and i32 %24, 24
  %26 = icmp ne i32 %25, 0
  br i1 %26, label %33, label %27

27:                                               ; preds = %20
  %28 = load i32, ptr %4, align 4, !tbaa !65
  %29 = icmp ne i32 %28, 0
  br i1 %29, label %33, label %30

30:                                               ; preds = %27
  %31 = load ptr, ptr %5, align 8, !tbaa !9
  %32 = getelementptr inbounds nuw %struct.GCObject, ptr %31, i32 0, i32 0
  store ptr %32, ptr %6, align 8, !tbaa !52
  br label %58

33:                                               ; preds = %27, %20
  %34 = load ptr, ptr %5, align 8, !tbaa !9
  %35 = load ptr, ptr %3, align 8, !tbaa !22
  %36 = getelementptr inbounds nuw %struct.global_State, ptr %35, i32 0, i32 31
  %37 = load ptr, ptr %36, align 8, !tbaa !70
  %38 = icmp eq ptr %34, %37
  br i1 %38, label %39, label %45

39:                                               ; preds = %33
  %40 = load ptr, ptr %5, align 8, !tbaa !9
  %41 = getelementptr inbounds nuw %struct.GCObject, ptr %40, i32 0, i32 0
  %42 = load ptr, ptr %41, align 8, !tbaa !53
  %43 = load ptr, ptr %3, align 8, !tbaa !22
  %44 = getelementptr inbounds nuw %struct.global_State, ptr %43, i32 0, i32 31
  store ptr %42, ptr %44, align 8, !tbaa !70
  br label %45

45:                                               ; preds = %39, %33
  %46 = load ptr, ptr %5, align 8, !tbaa !9
  %47 = getelementptr inbounds nuw %struct.GCObject, ptr %46, i32 0, i32 0
  %48 = load ptr, ptr %47, align 8, !tbaa !53
  %49 = load ptr, ptr %6, align 8, !tbaa !52
  store ptr %48, ptr %49, align 8, !tbaa !9
  %50 = load ptr, ptr %7, align 8, !tbaa !52
  %51 = load ptr, ptr %50, align 8, !tbaa !9
  %52 = load ptr, ptr %5, align 8, !tbaa !9
  %53 = getelementptr inbounds nuw %struct.GCObject, ptr %52, i32 0, i32 0
  store ptr %51, ptr %53, align 8, !tbaa !53
  %54 = load ptr, ptr %5, align 8, !tbaa !9
  %55 = load ptr, ptr %7, align 8, !tbaa !52
  store ptr %54, ptr %55, align 8, !tbaa !9
  %56 = load ptr, ptr %5, align 8, !tbaa !9
  %57 = getelementptr inbounds nuw %struct.GCObject, ptr %56, i32 0, i32 0
  store ptr %57, ptr %7, align 8, !tbaa !52
  br label %58

58:                                               ; preds = %45, %30
  br label %13

59:                                               ; preds = %13
  call void @llvm.lifetime.end.p0(i64 8, ptr %7) #6
  call void @llvm.lifetime.end.p0(i64 8, ptr %6) #6
  call void @llvm.lifetime.end.p0(i64 8, ptr %5) #6
  ret void
}

; Function Attrs: nounwind uwtable
define hidden void @luaC_freeallobjects(ptr noundef %0) #0 {
  %2 = alloca ptr, align 8
  %3 = alloca ptr, align 8
  store ptr %0, ptr %2, align 8, !tbaa !4
  call void @llvm.lifetime.start.p0(i64 8, ptr %3) #6
  %4 = load ptr, ptr %2, align 8, !tbaa !4
  %5 = getelementptr inbounds nuw %struct.lua_State, ptr %4, i32 0, i32 7
  %6 = load ptr, ptr %5, align 8, !tbaa !11
  store ptr %6, ptr %3, align 8, !tbaa !22
  %7 = load ptr, ptr %3, align 8, !tbaa !22
  %8 = getelementptr inbounds nuw %struct.global_State, ptr %7, i32 0, i32 15
  store i8 4, ptr %8, align 2, !tbaa !62
  %9 = load ptr, ptr %2, align 8, !tbaa !4
  call void @luaC_changemode(ptr noundef %9, i32 noundef 0)
  %10 = load ptr, ptr %3, align 8, !tbaa !22
  call void @separatetobefnz(ptr noundef %10, i32 noundef 1)
  %11 = load ptr, ptr %2, align 8, !tbaa !4
  call void @callallpendingfinalizers(ptr noundef %11)
  %12 = load ptr, ptr %2, align 8, !tbaa !4
  %13 = load ptr, ptr %3, align 8, !tbaa !22
  %14 = getelementptr inbounds nuw %struct.global_State, ptr %13, i32 0, i32 17
  %15 = load ptr, ptr %14, align 8, !tbaa !54
  %16 = load ptr, ptr %3, align 8, !tbaa !22
  %17 = getelementptr inbounds nuw %struct.global_State, ptr %16, i32 0, i32 36
  %18 = load ptr, ptr %17, align 8, !tbaa !73
  call void @deletelist(ptr noundef %12, ptr noundef %15, ptr noundef %18)
  %19 = load ptr, ptr %2, align 8, !tbaa !4
  %20 = load ptr, ptr %3, align 8, !tbaa !22
  %21 = getelementptr inbounds nuw %struct.global_State, ptr %20, i32 0, i32 26
  %22 = load ptr, ptr %21, align 8, !tbaa !55
  call void @deletelist(ptr noundef %19, ptr noundef %22, ptr noundef null)
  call void @llvm.lifetime.end.p0(i64 8, ptr %3) #6
  ret void
}