; Function Attrs: nounwind uwtable
define hidden void @luaC_freeallobjects(ptr noundef %0) local_unnamed_addr #0 {
  %2 = getelementptr inbounds nuw i8, ptr %0, i64 24
  %3 = load ptr, ptr %2, align 8, !tbaa !4
  %4 = getelementptr inbounds nuw i8, ptr %3, i64 110
  store i8 4, ptr %4, align 2, !tbaa !52
  tail call void @luaC_changemode(ptr noundef %0, i32 noundef 0)
  %5 = getelementptr inbounds nuw i8, ptr %3, i64 176
  br label %6

6:                                                ; preds = %6, %1
  %.0.i.i = phi ptr [ %5, %1 ], [ %7, %6 ]
  %7 = load ptr, ptr %.0.i.i, align 8, !tbaa !46
  %.not.i.i = icmp eq ptr %7, null
  br i1 %.not.i.i, label %findlast.exit.preheader.i, label %6

findlast.exit.preheader.i:                        ; preds = %6
  %8 = getelementptr inbounds nuw i8, ptr %3, i64 128
  %9 = getelementptr inbounds nuw i8, ptr %3, i64 232
  %10 = load ptr, ptr %8, align 8, !tbaa !46
  %11 = load ptr, ptr %9, align 8, !tbaa !56
  %.not21.i = icmp eq ptr %10, %11
  br i1 %.not21.i, label %separatetobefnz.exit, label %.lr.ph.i

.lr.ph.i:                                         ; preds = %findlast.exit.preheader.i
  %12 = getelementptr inbounds nuw i8, ptr %3, i64 224
  br label %.lr.ph.split.us.i

.lr.ph.split.us.i:                                ; preds = %findlast.exit.us.i, %.lr.ph.i
  %13 = phi ptr [ %18, %findlast.exit.us.i ], [ %10, %.lr.ph.i ]
  %.023.us.i = phi ptr [ %13, %findlast.exit.us.i ], [ %.0.i.i, %.lr.ph.i ]
  %14 = load ptr, ptr %12, align 8, !tbaa !57
  %15 = icmp eq ptr %13, %14
  %.pre.i = load ptr, ptr %13, align 8, !tbaa !47
  br i1 %15, label %16, label %findlast.exit.us.i

16:                                               ; preds = %.lr.ph.split.us.i
  store ptr %.pre.i, ptr %12, align 8, !tbaa !57
  br label %findlast.exit.us.i

findlast.exit.us.i:                               ; preds = %16, %.lr.ph.split.us.i
  store ptr %.pre.i, ptr %8, align 8, !tbaa !46
  %17 = load ptr, ptr %.023.us.i, align 8, !tbaa !46
  store ptr %17, ptr %13, align 8, !tbaa !47
  store ptr %13, ptr %.023.us.i, align 8, !tbaa !46
  %18 = load ptr, ptr %8, align 8, !tbaa !46
  %19 = load ptr, ptr %9, align 8, !tbaa !56
  %.not.us.i = icmp eq ptr %18, %19
  br i1 %.not.us.i, label %separatetobefnz.exit, label %.lr.ph.split.us.i

separatetobefnz.exit:                             ; preds = %findlast.exit.us.i, %findlast.exit.preheader.i
  %20 = load ptr, ptr %2, align 8, !tbaa !4
  %21 = getelementptr inbounds nuw i8, ptr %20, i64 176
  %22 = load ptr, ptr %21, align 8, !tbaa !58
  %.not3.i = icmp eq ptr %22, null
  br i1 %.not3.i, label %callallpendingfinalizers.exit, label %.lr.ph.i10

.lr.ph.i10:                                       ; preds = %separatetobefnz.exit, %.lr.ph.i10
  tail call fastcc void @GCTM(ptr noundef %0)
  %23 = load ptr, ptr %21, align 8, !tbaa !58
  %.not.i = icmp eq ptr %23, null
  br i1 %.not.i, label %callallpendingfinalizers.exit, label %.lr.ph.i10

callallpendingfinalizers.exit:                    ; preds = %.lr.ph.i10, %separatetobefnz.exit
  %24 = getelementptr inbounds nuw i8, ptr %3, i64 112
  %25 = load ptr, ptr %24, align 8, !tbaa !48
  %26 = getelementptr inbounds nuw i8, ptr %3, i64 264
  %27 = load ptr, ptr %26, align 8, !tbaa !59
  %.not6.i = icmp eq ptr %25, %27
  br i1 %.not6.i, label %deletelist.exit, label %.lr.ph.i11

.lr.ph.i11:                                       ; preds = %callallpendingfinalizers.exit, %.lr.ph.i11
  %.07.i = phi ptr [ %28, %.lr.ph.i11 ], [ %25, %callallpendingfinalizers.exit ]
  %28 = load ptr, ptr %.07.i, align 8, !tbaa !47
  tail call fastcc void @freeobj(ptr noundef %0, ptr noundef nonnull %.07.i)
  %.not.i12 = icmp eq ptr %28, %27
  br i1 %.not.i12, label %deletelist.exit, label %.lr.ph.i11

deletelist.exit:                                  ; preds = %.lr.ph.i11, %callallpendingfinalizers.exit
  %29 = getelementptr inbounds nuw i8, ptr %3, i64 184
  %30 = load ptr, ptr %29, align 8, !tbaa !49
  %.not6.i13 = icmp eq ptr %30, null
  br i1 %.not6.i13, label %deletelist.exit17, label %.lr.ph.i14

.lr.ph.i14:                                       ; preds = %deletelist.exit, %.lr.ph.i14
  %.07.i15 = phi ptr [ %31, %.lr.ph.i14 ], [ %30, %deletelist.exit ]
  %31 = load ptr, ptr %.07.i15, align 8, !tbaa !47
  tail call fastcc void @freeobj(ptr noundef %0, ptr noundef nonnull %.07.i15)
  %.not.i16 = icmp eq ptr %31, null
  br i1 %.not.i16, label %deletelist.exit17, label %.lr.ph.i14

deletelist.exit17:                                ; preds = %.lr.ph.i14, %deletelist.exit
  ret void
}